(lp0
(dp1
S'rej'
p2
I1110
sS'total'
p3
I100000
sS'fun_name'
p4
S'rnd_rnd'
p5
sS'rounds'
p6
I0
sa(dp7
g2
I3189
sg3
I100000
sg4
S'rnd_rnd'
p8
sg6
I0
sa(dp9
g2
I1112
sg3
I100000
sg4
S'rnd_rnd'
p10
sg6
I0
sa(dp11
g2
I3127
sg3
I100000
sg4
S'rnd_rnd'
p12
sg6
I0
sa(dp13
g2
I1150
sg3
I100000
sg4
S'rnd_rnd'
p14
sg6
I0
sa(dp15
g2
I8883
sg3
I105000
sg4
S'rnd_rnd'
p16
sg6
I0
sa.